; ModuleID = '32/1410.c'
source_filename = "32/1410.c"
target datalayout = "e-m:e-p270:32:32-p271:32:32-p272:64:64-i64:64-f80:128-n8:16:32:64-S128"
target triple = "x86_64-pc-linux-gnu"

@.str = private unnamed_addr constant [3 x i8] c"%c\00", align 1
@.str.1 = private unnamed_addr constant [2 x i8] c"\0A\00", align 1
@.str.2 = private unnamed_addr constant [3 x i8] c"%d\00", align 1
@.str.3 = private unnamed_addr constant [6 x i8] c"%s%s\0A\00", align 1

; Function Attrs: noinline nounwind uwtable
define dso_local void @c(i8* %0, i32 %1, i8* %2, i32 %3) #0 {
  %5 = alloca i8*, align 8
  %6 = alloca i32, align 4
  %7 = alloca i8*, align 8
  %8 = alloca i32, align 4
  %9 = alloca i32, align 4
  %10 = alloca i32, align 4
  %11 = alloca i32, align 4
  %12 = alloca i32, align 4
  %13 = alloca [252 x i8], align 16
  store i8* %0, i8** %5, align 8
  store i32 %1, i32* %6, align 4
  store i8* %2, i8** %7, align 8
  store i32 %3, i32* %8, align 4
  store i32 0, i32* %11, align 4
  store i32 0, i32* %12, align 4
  %14 = load i32, i32* %6, align 4
  %15 = sub nsw i32 %14, 1
  store i32 %15, i32* %9, align 4
  %16 = load i32, i32* %8, align 4
  %17 = sub nsw i32 %16, 1
  store i32 %17, i32* %10, align 4
  br label %18

18:                                               ; preds = %126, %4
  %19 = load i32, i32* %9, align 4
  %20 = icmp sge i32 %19, 0
  br i1 %20, label %21, label %131

21:                                               ; preds = %18
  %22 = load i32, i32* %10, align 4
  %23 = icmp sge i32 %22, 0
  br i1 %23, label %24, label %79

24:                                               ; preds = %21
  %25 = load i8*, i8** %5, align 8
  %26 = load i32, i32* %9, align 4
  %27 = sext i32 %26 to i64
  %28 = getelementptr inbounds i8, i8* %25, i64 %27
  %29 = load i8, i8* %28, align 1
  %30 = sext i8 %29 to i32
  %31 = add nsw i32 %30, 48
  %32 = load i8*, i8** %7, align 8
  %33 = load i32, i32* %10, align 4
  %34 = sext i32 %33 to i64
  %35 = getelementptr inbounds i8, i8* %32, i64 %34
  %36 = load i8, i8* %35, align 1
  %37 = sext i8 %36 to i32
  %38 = sub nsw i32 %31, %37
  %39 = trunc i32 %38 to i8
  %40 = load i32, i32* %9, align 4
  %41 = add nsw i32 %40, 1
  %42 = sext i32 %41 to i64
  %43 = getelementptr inbounds [252 x i8], [252 x i8]* %13, i64 0, i64 %42
  store i8 %39, i8* %43, align 1
  %44 = load i32, i32* %9, align 4
  %45 = add nsw i32 %44, 1
  %46 = sext i32 %45 to i64
  %47 = getelementptr inbounds [252 x i8], [252 x i8]* %13, i64 0, i64 %46
  %48 = load i8, i8* %47, align 1
  %49 = sext i8 %48 to i32
  %50 = icmp slt i32 %49, 48
  br i1 %50, label %51, label %78

51:                                               ; preds = %24
  %52 = load i32, i32* %9, align 4
  %53 = add nsw i32 %52, 1
  %54 = sext i32 %53 to i64
  %55 = getelementptr inbounds [252 x i8], [252 x i8]* %13, i64 0, i64 %54
  %56 = load i8, i8* %55, align 1
  %57 = sext i8 %56 to i32
  %58 = add nsw i32 %57, 10
  %59 = trunc i32 %58 to i8
  %60 = load i32, i32* %9, align 4
  %61 = add nsw i32 %60, 1
  %62 = sext i32 %61 to i64
  %63 = getelementptr inbounds [252 x i8], [252 x i8]* %13, i64 0, i64 %62
  store i8 %59, i8* %63, align 1
  %64 = load i8*, i8** %5, align 8
  %65 = load i32, i32* %9, align 4
  %66 = sub nsw i32 %65, 1
  %67 = sext i32 %66 to i64
  %68 = getelementptr inbounds i8, i8* %64, i64 %67
  %69 = load i8, i8* %68, align 1
  %70 = sext i8 %69 to i32
  %71 = sub nsw i32 %70, 1
  %72 = trunc i32 %71 to i8
  %73 = load i8*, i8** %5, align 8
  %74 = load i32, i32* %9, align 4
  %75 = sub nsw i32 %74, 1
  %76 = sext i32 %75 to i64
  %77 = getelementptr inbounds i8, i8* %73, i64 %76
  store i8 %72, i8* %77, align 1
  br label %78

78:                                               ; preds = %51, %24
  br label %125

79:                                               ; preds = %21
  %80 = load i8*, i8** %5, align 8
  %81 = load i32, i32* %9, align 4
  %82 = sext i32 %81 to i64
  %83 = getelementptr inbounds i8, i8* %80, i64 %82
  %84 = load i8, i8* %83, align 1
  %85 = sext i8 %84 to i32
  %86 = icmp slt i32 %85, 48
  br i1 %86, label %87, label %114

87:                                               ; preds = %79
  %88 = load i8*, i8** %5, align 8
  %89 = load i32, i32* %9, align 4
  %90 = sext i32 %89 to i64
  %91 = getelementptr inbounds i8, i8* %88, i64 %90
  %92 = load i8, i8* %91, align 1
  %93 = sext i8 %92 to i32
  %94 = add nsw i32 %93, 10
  %95 = trunc i32 %94 to i8
  %96 = load i32, i32* %9, align 4
  %97 = add nsw i32 %96, 1
  %98 = sext i32 %97 to i64
  %99 = getelementptr inbounds [252 x i8], [252 x i8]* %13, i64 0, i64 %98
  store i8 %95, i8* %99, align 1
  %100 = load i8*, i8** %5, align 8
  %101 = load i32, i32* %9, align 4
  %102 = sub nsw i32 %101, 1
  %103 = sext i32 %102 to i64
  %104 = getelementptr inbounds i8, i8* %100, i64 %103
  %105 = load i8, i8* %104, align 1
  %106 = sext i8 %105 to i32
  %107 = sub nsw i32 %106, 1
  %108 = trunc i32 %107 to i8
  %109 = load i8*, i8** %5, align 8
  %110 = load i32, i32* %9, align 4
  %111 = sub nsw i32 %110, 1
  %112 = sext i32 %111 to i64
  %113 = getelementptr inbounds i8, i8* %109, i64 %112
  store i8 %108, i8* %113, align 1
  br label %124

114:                                              ; preds = %79
  %115 = load i8*, i8** %5, align 8
  %116 = load i32, i32* %9, align 4
  %117 = sext i32 %116 to i64
  %118 = getelementptr inbounds i8, i8* %115, i64 %117
  %119 = load i8, i8* %118, align 1
  %120 = load i32, i32* %9, align 4
  %121 = add nsw i32 %120, 1
  %122 = sext i32 %121 to i64
  %123 = getelementptr inbounds [252 x i8], [252 x i8]* %13, i64 0, i64 %122
  store i8 %119, i8* %123, align 1
  br label %124

124:                                              ; preds = %114, %87
  br label %125

125:                                              ; preds = %124, %78
  br label %126

126:                                              ; preds = %125
  %127 = load i32, i32* %9, align 4
  %128 = add nsw i32 %127, -1
  store i32 %128, i32* %9, align 4
  %129 = load i32, i32* %10, align 4
  %130 = add nsw i32 %129, -1
  store i32 %130, i32* %10, align 4
  br label %18

131:                                              ; preds = %18
  store i32 1, i32* %9, align 4
  br label %132

132:                                              ; preds = %162, %131
  %133 = load i32, i32* %9, align 4
  %134 = load i32, i32* %6, align 4
  %135 = add nsw i32 %134, 1
  %136 = icmp slt i32 %133, %135
  br i1 %136, label %137, label %165

137:                                              ; preds = %132
  %138 = load i32, i32* %9, align 4
  %139 = sext i32 %138 to i64
  %140 = getelementptr inbounds [252 x i8], [252 x i8]* %13, i64 0, i64 %139
  %141 = load i8, i8* %140, align 1
  %142 = sext i8 %141 to i32
  %143 = icmp ne i32 %142, 48
  br i1 %143, label %144, label %147

144:                                              ; preds = %137
  store i32 1, i32* %11, align 4
  %145 = load i32, i32* %12, align 4
  %146 = add nsw i32 %145, 1
  store i32 %146, i32* %12, align 4
  br label %147

147:                                              ; preds = %144, %137
  %148 = load i32, i32* %6, align 4
  %149 = add nsw i32 %148, 1
  %150 = icmp eq i32 %149, 2
  br i1 %150, label %154, label %151

151:                                              ; preds = %147
  %152 = load i32, i32* %12, align 4
  %153 = icmp ne i32 %152, 0
  br i1 %153, label %154, label %161

154:                                              ; preds = %151, %147
  %155 = load i32, i32* %9, align 4
  %156 = sext i32 %155 to i64
  %157 = getelementptr inbounds [252 x i8], [252 x i8]* %13, i64 0, i64 %156
  %158 = load i8, i8* %157, align 1
  %159 = sext i8 %158 to i32
  %160 = call i32 (i8*, ...) @printf(i8* getelementptr inbounds ([3 x i8], [3 x i8]* @.str, i64 0, i64 0), i32 %159)
  br label %161

161:                                              ; preds = %154, %151
  br label %162

162:                                              ; preds = %161
  %163 = load i32, i32* %9, align 4
  %164 = add nsw i32 %163, 1
  store i32 %164, i32* %9, align 4
  br label %132

165:                                              ; preds = %132
  %166 = call i32 (i8*, ...) @printf(i8* getelementptr inbounds ([2 x i8], [2 x i8]* @.str.1, i64 0, i64 0))
  ret void
}

declare dso_local i32 @printf(i8*, ...) #1

; Function Attrs: noinline nounwind uwtable
define dso_local i32 @main() #0 {
  %1 = alloca i32, align 4
  %2 = alloca i32, align 4
  %3 = alloca i32, align 4
  %4 = alloca i32, align 4
  %5 = alloca i32, align 4
  %6 = alloca [251 x i8], align 16
  %7 = alloca [251 x i8], align 16
  store i32 0, i32* %1, align 4
  %8 = call i32 (i8*, ...) @__isoc99_scanf(i8* getelementptr inbounds ([3 x i8], [3 x i8]* @.str.2, i64 0, i64 0), i32* %4)
  store i32 0, i32* %5, align 4
  br label %9

9:                                                ; preds = %42, %0
  %10 = load i32, i32* %5, align 4
  %11 = load i32, i32* %4, align 4
  %12 = icmp slt i32 %10, %11
  br i1 %12, label %13, label %45

13:                                               ; preds = %9
  %14 = getelementptr inbounds [251 x i8], [251 x i8]* %6, i64 0, i64 0
  %15 = getelementptr inbounds [251 x i8], [251 x i8]* %7, i64 0, i64 0
  %16 = call i32 (i8*, ...) @__isoc99_scanf(i8* getelementptr inbounds ([6 x i8], [6 x i8]* @.str.3, i64 0, i64 0), i8* %14, i8* %15)
  %17 = getelementptr inbounds [251 x i8], [251 x i8]* %6, i64 0, i64 0
  %18 = call i64 @strlen(i8* %17) #3
  %19 = trunc i64 %18 to i32
  store i32 %19, i32* %2, align 4
  %20 = getelementptr inbounds [251 x i8], [251 x i8]* %7, i64 0, i64 0
  %21 = call i64 @strlen(i8* %20) #3
  %22 = trunc i64 %21 to i32
  store i32 %22, i32* %3, align 4
  %23 = load i32, i32* %2, align 4
  %24 = load i32, i32* %3, align 4
  %25 = icmp sge i32 %23, %24
  br i1 %25, label %26, label %31

26:                                               ; preds = %13
  %27 = getelementptr inbounds [251 x i8], [251 x i8]* %6, i64 0, i64 0
  %28 = load i32, i32* %2, align 4
  %29 = getelementptr inbounds [251 x i8], [251 x i8]* %7, i64 0, i64 0
  %30 = load i32, i32* %3, align 4
  call void @c(i8* %27, i32 %28, i8* %29, i32 %30)
  br label %41

31:                                               ; preds = %13
  %32 = load i32, i32* %3, align 4
  %33 = load i32, i32* %2, align 4
  %34 = icmp sgt i32 %32, %33
  br i1 %34, label %35, label %40

35:                                               ; preds = %31
  %36 = getelementptr inbounds [251 x i8], [251 x i8]* %7, i64 0, i64 0
  %37 = load i32, i32* %3, align 4
  %38 = getelementptr inbounds [251 x i8], [251 x i8]* %6, i64 0, i64 0
  %39 = load i32, i32* %2, align 4
  call void @c(i8* %36, i32 %37, i8* %38, i32 %39)
  br label %40

40:                                               ; preds = %35, %31
  br label %41

41:                                               ; preds = %40, %26
  br label %42

42:                                               ; preds = %41
  %43 = load i32, i32* %5, align 4
  %44 = add nsw i32 %43, 1
  store i32 %44, i32* %5, align 4
  br label %9

45:                                               ; preds = %9
  ret i32 0
}

declare dso_local i32 @__isoc99_scanf(i8*, ...) #1

; Function Attrs: nounwind readonly
declare dso_local i64 @strlen(i8*) #2


!llvm.module.flags = !{!0}
!llvm.ident = !{!1}

!0 = !{i32 1, !"wchar_size", i32 4}
!1 = !{!"clang version 10.0.0-4ubuntu1 "}
